
./lab3:     file format elf32-i386


Disassembly of section .init:

08048398 <_init>:
 8048398:	53                   	push   ebx
 8048399:	83 ec 08             	sub    esp,0x8
 804839c:	e8 df 00 00 00       	call   8048480 <__x86.get_pc_thunk.bx>
 80483a1:	81 c3 5f 1c 00 00    	add    ebx,0x1c5f
 80483a7:	8b 83 fc ff ff ff    	mov    eax,DWORD PTR [ebx-0x4]
 80483ad:	85 c0                	test   eax,eax
 80483af:	74 05                	je     80483b6 <_init+0x1e>
 80483b1:	e8 8a 00 00 00       	call   8048440 <setvbuf@plt+0x10>
 80483b6:	83 c4 08             	add    esp,0x8
 80483b9:	5b                   	pop    ebx
 80483ba:	c3                   	ret

Disassembly of section .plt:

080483c0 <read@plt-0x10>:
 80483c0:	ff 35 04 a0 04 08    	push   DWORD PTR ds:0x804a004
 80483c6:	ff 25 08 a0 04 08    	jmp    DWORD PTR ds:0x804a008
 80483cc:	00 00                	add    BYTE PTR [eax],al
	...

080483d0 <read@plt>:
 80483d0:	ff 25 0c a0 04 08    	jmp    DWORD PTR ds:0x804a00c
 80483d6:	68 00 00 00 00       	push   0x0
 80483db:	e9 e0 ff ff ff       	jmp    80483c0 <_init+0x28>

080483e0 <puts@plt>:
 80483e0:	ff 25 10 a0 04 08    	jmp    DWORD PTR ds:0x804a010
 80483e6:	68 08 00 00 00       	push   0x8
 80483eb:	e9 d0 ff ff ff       	jmp    80483c0 <_init+0x28>

080483f0 <exit@plt>:
 80483f0:	ff 25 14 a0 04 08    	jmp    DWORD PTR ds:0x804a014
 80483f6:	68 10 00 00 00       	push   0x10
 80483fb:	e9 c0 ff ff ff       	jmp    80483c0 <_init+0x28>

08048400 <strlen@plt>:
 8048400:	ff 25 18 a0 04 08    	jmp    DWORD PTR ds:0x804a018
 8048406:	68 18 00 00 00       	push   0x18
 804840b:	e9 b0 ff ff ff       	jmp    80483c0 <_init+0x28>

08048410 <__libc_start_main@plt>:
 8048410:	ff 25 1c a0 04 08    	jmp    DWORD PTR ds:0x804a01c
 8048416:	68 20 00 00 00       	push   0x20
 804841b:	e9 a0 ff ff ff       	jmp    80483c0 <_init+0x28>

08048420 <execve@plt>:
 8048420:	ff 25 20 a0 04 08    	jmp    DWORD PTR ds:0x804a020
 8048426:	68 28 00 00 00       	push   0x28
 804842b:	e9 90 ff ff ff       	jmp    80483c0 <_init+0x28>

08048430 <setvbuf@plt>:
 8048430:	ff 25 24 a0 04 08    	jmp    DWORD PTR ds:0x804a024
 8048436:	68 30 00 00 00       	push   0x30
 804843b:	e9 80 ff ff ff       	jmp    80483c0 <_init+0x28>

Disassembly of section .plt.got:

08048440 <.plt.got>:
 8048440:	ff 25 fc 9f 04 08    	jmp    DWORD PTR ds:0x8049ffc
 8048446:	66 90                	xchg   ax,ax

Disassembly of section .text:

08048450 <_start>:
 8048450:	31 ed                	xor    ebp,ebp
 8048452:	5e                   	pop    esi
 8048453:	89 e1                	mov    ecx,esp
 8048455:	83 e4 f0             	and    esp,0xfffffff0
 8048458:	50                   	push   eax
 8048459:	54                   	push   esp
 804845a:	52                   	push   edx
 804845b:	68 a0 86 04 08       	push   0x80486a0
 8048460:	68 40 86 04 08       	push   0x8048640
 8048465:	51                   	push   ecx
 8048466:	56                   	push   esi
 8048467:	68 c1 85 04 08       	push   0x80485c1
 804846c:	e8 9f ff ff ff       	call   8048410 <__libc_start_main@plt>
 8048471:	f4                   	hlt
 8048472:	66 90                	xchg   ax,ax
 8048474:	66 90                	xchg   ax,ax
 8048476:	66 90                	xchg   ax,ax
 8048478:	66 90                	xchg   ax,ax
 804847a:	66 90                	xchg   ax,ax
 804847c:	66 90                	xchg   ax,ax
 804847e:	66 90                	xchg   ax,ax

08048480 <__x86.get_pc_thunk.bx>:
 8048480:	8b 1c 24             	mov    ebx,DWORD PTR [esp]
 8048483:	c3                   	ret
 8048484:	66 90                	xchg   ax,ax
 8048486:	66 90                	xchg   ax,ax
 8048488:	66 90                	xchg   ax,ax
 804848a:	66 90                	xchg   ax,ax
 804848c:	66 90                	xchg   ax,ax
 804848e:	66 90                	xchg   ax,ax

08048490 <deregister_tm_clones>:
 8048490:	b8 33 a0 04 08       	mov    eax,0x804a033
 8048495:	2d 30 a0 04 08       	sub    eax,0x804a030
 804849a:	83 f8 06             	cmp    eax,0x6
 804849d:	76 1a                	jbe    80484b9 <deregister_tm_clones+0x29>
 804849f:	b8 00 00 00 00       	mov    eax,0x0
 80484a4:	85 c0                	test   eax,eax
 80484a6:	74 11                	je     80484b9 <deregister_tm_clones+0x29>
 80484a8:	55                   	push   ebp
 80484a9:	89 e5                	mov    ebp,esp
 80484ab:	83 ec 14             	sub    esp,0x14
 80484ae:	68 30 a0 04 08       	push   0x804a030
 80484b3:	ff d0                	call   eax
 80484b5:	83 c4 10             	add    esp,0x10
 80484b8:	c9                   	leave
 80484b9:	f3 c3                	repz ret
 80484bb:	90                   	nop
 80484bc:	8d 74 26 00          	lea    esi,[esi+eiz*1+0x0]

080484c0 <register_tm_clones>:
 80484c0:	b8 30 a0 04 08       	mov    eax,0x804a030
 80484c5:	2d 30 a0 04 08       	sub    eax,0x804a030
 80484ca:	c1 f8 02             	sar    eax,0x2
 80484cd:	89 c2                	mov    edx,eax
 80484cf:	c1 ea 1f             	shr    edx,0x1f
 80484d2:	01 d0                	add    eax,edx
 80484d4:	d1 f8                	sar    eax,1
 80484d6:	74 1b                	je     80484f3 <register_tm_clones+0x33>
 80484d8:	ba 00 00 00 00       	mov    edx,0x0
 80484dd:	85 d2                	test   edx,edx
 80484df:	74 12                	je     80484f3 <register_tm_clones+0x33>
 80484e1:	55                   	push   ebp
 80484e2:	89 e5                	mov    ebp,esp
 80484e4:	83 ec 10             	sub    esp,0x10
 80484e7:	50                   	push   eax
 80484e8:	68 30 a0 04 08       	push   0x804a030
 80484ed:	ff d2                	call   edx
 80484ef:	83 c4 10             	add    esp,0x10
 80484f2:	c9                   	leave
 80484f3:	f3 c3                	repz ret
 80484f5:	8d 74 26 00          	lea    esi,[esi+eiz*1+0x0]
 80484f9:	8d bc 27 00 00 00 00 	lea    edi,[edi+eiz*1+0x0]

08048500 <__do_global_dtors_aux>:
 8048500:	80 3d 48 a0 04 08 00 	cmp    BYTE PTR ds:0x804a048,0x0
 8048507:	75 13                	jne    804851c <__do_global_dtors_aux+0x1c>
 8048509:	55                   	push   ebp
 804850a:	89 e5                	mov    ebp,esp
 804850c:	83 ec 08             	sub    esp,0x8
 804850f:	e8 7c ff ff ff       	call   8048490 <deregister_tm_clones>
 8048514:	c6 05 48 a0 04 08 01 	mov    BYTE PTR ds:0x804a048,0x1
 804851b:	c9                   	leave
 804851c:	f3 c3                	repz ret
 804851e:	66 90                	xchg   ax,ax

08048520 <frame_dummy>:
 8048520:	b8 10 9f 04 08       	mov    eax,0x8049f10
 8048525:	8b 10                	mov    edx,DWORD PTR [eax]
 8048527:	85 d2                	test   edx,edx
 8048529:	75 05                	jne    8048530 <frame_dummy+0x10>
 804852b:	eb 93                	jmp    80484c0 <register_tm_clones>
 804852d:	8d 76 00             	lea    esi,[esi+0x0]
 8048530:	ba 00 00 00 00       	mov    edx,0x0
 8048535:	85 d2                	test   edx,edx
 8048537:	74 f2                	je     804852b <frame_dummy+0xb>
 8048539:	55                   	push   ebp
 804853a:	89 e5                	mov    ebp,esp
 804853c:	83 ec 14             	sub    esp,0x14
 804853f:	50                   	push   eax
 8048540:	ff d2                	call   edx
 8048542:	83 c4 10             	add    esp,0x10
 8048545:	c9                   	leave
 8048546:	e9 75 ff ff ff       	jmp    80484c0 <register_tm_clones>

0804854b <y0u_c4n7_533_m3>:
 804854b:	55                   	push   ebp
 804854c:	89 e5                	mov    ebp,esp
 804854e:	83 ec 18             	sub    esp,0x18
 8048551:	c7 45 f4 00 00 00 00 	mov    DWORD PTR [ebp-0xc],0x0
 8048558:	83 7d f4 00          	cmp    DWORD PTR [ebp-0xc],0x0
 804855c:	74 16                	je     8048574 <y0u_c4n7_533_m3+0x29>
 804855e:	83 ec 04             	sub    esp,0x4
 8048561:	6a 00                	push   0x0
 8048563:	6a 00                	push   0x0
 8048565:	68 c0 86 04 08       	push   0x80486c0
 804856a:	e8 b1 fe ff ff       	call   8048420 <execve@plt>
 804856f:	83 c4 10             	add    esp,0x10
 8048572:	eb 1a                	jmp    804858e <y0u_c4n7_533_m3+0x43>
 8048574:	83 ec 0c             	sub    esp,0xc
 8048577:	68 c8 86 04 08       	push   0x80486c8
 804857c:	e8 5f fe ff ff       	call   80483e0 <puts@plt>
 8048581:	83 c4 10             	add    esp,0x10
 8048584:	83 ec 0c             	sub    esp,0xc
 8048587:	6a 00                	push   0x0
 8048589:	e8 62 fe ff ff       	call   80483f0 <exit@plt>
 804858e:	c9                   	leave
 804858f:	c3                   	ret

08048590 <unbuffer>:
 8048590:	55                   	push   ebp
 8048591:	89 e5                	mov    ebp,esp
 8048593:	83 ec 08             	sub    esp,0x8
 8048596:	a1 40 a0 04 08       	mov    eax,ds:0x804a040
 804859b:	6a 00                	push   0x0
 804859d:	6a 02                	push   0x2
 804859f:	6a 00                	push   0x0
 80485a1:	50                   	push   eax
 80485a2:	e8 89 fe ff ff       	call   8048430 <setvbuf@plt>
 80485a7:	83 c4 10             	add    esp,0x10
 80485aa:	a1 44 a0 04 08       	mov    eax,ds:0x804a044
 80485af:	6a 00                	push   0x0
 80485b1:	6a 02                	push   0x2
 80485b3:	6a 00                	push   0x0
 80485b5:	50                   	push   eax
 80485b6:	e8 75 fe ff ff       	call   8048430 <setvbuf@plt>
 80485bb:	83 c4 10             	add    esp,0x10
 80485be:	90                   	nop
 80485bf:	c9                   	leave
 80485c0:	c3                   	ret

080485c1 <main>:
 80485c1:	8d 4c 24 04          	lea    ecx,[esp+0x4]
 80485c5:	83 e4 f0             	and    esp,0xfffffff0
 80485c8:	ff 71 fc             	push   DWORD PTR [ecx-0x4]
 80485cb:	55                   	push   ebp
 80485cc:	89 e5                	mov    ebp,esp
 80485ce:	51                   	push   ecx
 80485cf:	83 ec 14             	sub    esp,0x14
 80485d2:	e8 b9 ff ff ff       	call   8048590 <unbuffer>
 80485d7:	83 ec 0c             	sub    esp,0xc
 80485da:	68 d4 86 04 08       	push   0x80486d4
 80485df:	e8 fc fd ff ff       	call   80483e0 <puts@plt>
 80485e4:	83 c4 10             	add    esp,0x10
 80485e7:	83 ec 04             	sub    esp,0x4
 80485ea:	6a 30                	push   0x30
 80485ec:	8d 45 e8             	lea    eax,[ebp-0x18]
 80485ef:	50                   	push   eax
 80485f0:	6a 00                	push   0x0
 80485f2:	e8 d9 fd ff ff       	call   80483d0 <read@plt>
 80485f7:	83 c4 10             	add    esp,0x10
 80485fa:	83 ec 0c             	sub    esp,0xc
 80485fd:	8d 45 e8             	lea    eax,[ebp-0x18]
 8048600:	50                   	push   eax
 8048601:	e8 fa fd ff ff       	call   8048400 <strlen@plt>
 8048606:	83 c4 10             	add    esp,0x10
 8048609:	83 f8 0f             	cmp    eax,0xf
 804860c:	76 1a                	jbe    8048628 <main+0x67>
 804860e:	83 ec 0c             	sub    esp,0xc
 8048611:	68 f9 86 04 08       	push   0x80486f9
 8048616:	e8 c5 fd ff ff       	call   80483e0 <puts@plt>
 804861b:	83 c4 10             	add    esp,0x10
 804861e:	83 ec 0c             	sub    esp,0xc
 8048621:	6a 00                	push   0x0
 8048623:	e8 c8 fd ff ff       	call   80483f0 <exit@plt>
 8048628:	b8 00 00 00 00       	mov    eax,0x0
 804862d:	8b 4d fc             	mov    ecx,DWORD PTR [ebp-0x4]
 8048630:	c9                   	leave
 8048631:	8d 61 fc             	lea    esp,[ecx-0x4]
 8048634:	c3                   	ret
 8048635:	66 90                	xchg   ax,ax
 8048637:	66 90                	xchg   ax,ax
 8048639:	66 90                	xchg   ax,ax
 804863b:	66 90                	xchg   ax,ax
 804863d:	66 90                	xchg   ax,ax
 804863f:	90                   	nop

08048640 <__libc_csu_init>:
 8048640:	55                   	push   ebp
 8048641:	57                   	push   edi
 8048642:	56                   	push   esi
 8048643:	53                   	push   ebx
 8048644:	e8 37 fe ff ff       	call   8048480 <__x86.get_pc_thunk.bx>
 8048649:	81 c3 b7 19 00 00    	add    ebx,0x19b7
 804864f:	83 ec 0c             	sub    esp,0xc
 8048652:	8b 6c 24 20          	mov    ebp,DWORD PTR [esp+0x20]
 8048656:	8d b3 0c ff ff ff    	lea    esi,[ebx-0xf4]
 804865c:	e8 37 fd ff ff       	call   8048398 <_init>
 8048661:	8d 83 08 ff ff ff    	lea    eax,[ebx-0xf8]
 8048667:	29 c6                	sub    esi,eax
 8048669:	c1 fe 02             	sar    esi,0x2
 804866c:	85 f6                	test   esi,esi
 804866e:	74 25                	je     8048695 <__libc_csu_init+0x55>
 8048670:	31 ff                	xor    edi,edi
 8048672:	8d b6 00 00 00 00    	lea    esi,[esi+0x0]
 8048678:	83 ec 04             	sub    esp,0x4
 804867b:	ff 74 24 2c          	push   DWORD PTR [esp+0x2c]
 804867f:	ff 74 24 2c          	push   DWORD PTR [esp+0x2c]
 8048683:	55                   	push   ebp
 8048684:	ff 94 bb 08 ff ff ff 	call   DWORD PTR [ebx+edi*4-0xf8]
 804868b:	83 c7 01             	add    edi,0x1
 804868e:	83 c4 10             	add    esp,0x10
 8048691:	39 f7                	cmp    edi,esi
 8048693:	75 e3                	jne    8048678 <__libc_csu_init+0x38>
 8048695:	83 c4 0c             	add    esp,0xc
 8048698:	5b                   	pop    ebx
 8048699:	5e                   	pop    esi
 804869a:	5f                   	pop    edi
 804869b:	5d                   	pop    ebp
 804869c:	c3                   	ret
 804869d:	8d 76 00             	lea    esi,[esi+0x0]

080486a0 <__libc_csu_fini>:
 80486a0:	f3 c3                	repz ret

Disassembly of section .fini:

080486a4 <_fini>:
 80486a4:	53                   	push   ebx
 80486a5:	83 ec 08             	sub    esp,0x8
 80486a8:	e8 d3 fd ff ff       	call   8048480 <__x86.get_pc_thunk.bx>
 80486ad:	81 c3 53 19 00 00    	add    ebx,0x1953
 80486b3:	83 c4 08             	add    esp,0x8
 80486b6:	5b                   	pop    ebx
 80486b7:	c3                   	ret
